target datalayout = "e-m:e-p270:32:32-p271:32:32-p272:64:64-i64:64-i128:128-f80:128-n8:16:32:64-S128"
target triple = "x86_64-pc-linux-gnu"

%struct._zend_executor_globals = type { %struct._zval_struct, %struct._zval_struct, [32 x ptr], ptr, ptr, %struct._zend_array, %struct._zend_array, ptr, i32, i32, ptr, ptr, ptr, ptr, ptr, ptr, i64, ptr, ptr, i32, i32, i64, i32, i32, i32, i8, i8, %struct.zend_atomic_bool_s, %struct.zend_atomic_bool_s, ptr, i64, ptr, ptr, %struct._zend_array, %struct._zend_array, i32, i8, %struct._zval_struct, %struct._zval_struct, %struct._zend_stack, %struct._zend_stack, %struct._zend_stack, ptr, i32, i32, i64, ptr, ptr, ptr, %struct._zend_objects_store, ptr, ptr, ptr, [3 x %struct._zend_op], ptr, i8, i8, i64, i32, i32, ptr, [16 x %struct._HashTableIterator], ptr, %union._zend_function, %struct._zend_op, %struct._zend_array, i64, %struct.zend_get_gc_buffer, ptr, ptr, ptr, i64, i8, i32, ptr, ptr, i64, %struct._zend_call_stack, i64, i64, [6 x ptr] }
%struct.zend_atomic_bool_s = type { i8 }
%struct._zval_struct = type { %union._zend_value, %union.anon, %union.anon.2 }
%union._zend_value = type { i64 }
%union.anon = type { i32 }
%union.anon.2 = type { i32 }
%struct._zend_stack = type { i32, i32, i32, ptr }
%struct._zend_objects_store = type { ptr, i32, i32, i32 }
%struct._HashTableIterator = type { ptr, i32, i32 }
%union._zend_function = type { %struct._zend_op_array }
%struct._zend_op_array = type { i8, [3 x i8], i32, ptr, ptr, ptr, i32, i32, ptr, ptr, ptr, ptr, i32, i32, i32, i32, ptr, ptr, ptr, ptr, ptr, i32, i32, ptr, ptr, ptr, i32, i32, i32, i32, ptr, ptr, [6 x ptr] }
%struct._zend_op = type { ptr, %union._znode_op, %union._znode_op, %union._znode_op, i32, i32, i8, i8, i8, i8 }
%union._znode_op = type { i32 }
%struct._zend_array = type { %struct._zend_refcounted_h, %union.anon.4, i32, %union.anon.6, i32, i32, i32, i32, i64, ptr }
%struct._zend_refcounted_h = type { i32, %union.anon.3 }
%union.anon.3 = type { i32 }
%union.anon.4 = type { i32 }
%union.anon.6 = type { ptr }
%struct.zend_get_gc_buffer = type { ptr, ptr, ptr }
%struct._zend_call_stack = type { ptr, i64 }
%struct._zend_resource = type { %struct._zend_refcounted_h, i64, i32, ptr }

@executor_globals = external global %struct._zend_executor_globals, align 8
@.str = private unnamed_addr constant [27 x i8] c"Resource ID space overflow\00", align 1

; Function Attrs: nounwind uwtable
define ptr @zend_list_insert(ptr noundef %0, i32 noundef %1) #0 {
  %3 = alloca ptr, align 8
  %4 = alloca i32, align 4
  %5 = alloca ptr, align 8
  %6 = alloca ptr, align 8
  %7 = alloca i32, align 4
  %8 = alloca %struct._zval_struct, align 8
  %9 = alloca i64, align 8
  %10 = alloca ptr, align 8
  %11 = alloca ptr, align 8
  store ptr %0, ptr %6, align 8
  store i32 %1, ptr %7, align 4
  store ptr getelementptr inbounds (%struct._zend_executor_globals, ptr @executor_globals, i32 0, i32 33), ptr %5, align 8
  %12 = load ptr, ptr %5, align 8
  %13 = getelementptr inbounds %struct._zend_array, ptr %12, i32 0, i32 8
  %14 = load i64, ptr %13, align 8
  store i64 %14, ptr %9, align 8
  %15 = load i64, ptr %9, align 8
  %16 = icmp eq i64 %15, 0
  br i1 %16, label %17, label %18

17:                                               ; preds = %2
  store i64 1, ptr %9, align 8
  br label %23

18:                                               ; preds = %2
  %19 = load i64, ptr %9, align 8
  %20 = icmp eq i64 %19, 9223372036854775807
  br i1 %20, label %21, label %22

21:                                               ; preds = %18
  call void (i32, ptr, ...) @zend_error_noreturn(i32 noundef 1, ptr noundef @.str) #10
  unreachable

22:                                               ; preds = %18
  br label %23

23:                                               ; preds = %22, %17
  br label %24

24:                                               ; preds = %23
  %25 = call noalias ptr @_emalloc_32()
  store ptr %25, ptr %10, align 8
  %26 = load ptr, ptr %10, align 8
  %27 = getelementptr inbounds %struct._zend_resource, ptr %26, i32 0, i32 0
  store ptr %27, ptr %3, align 8
  store i32 1, ptr %4, align 4
  %28 = load i32, ptr %4, align 4
  %29 = load ptr, ptr %3, align 8
  store i32 %28, ptr %29, align 4
  %30 = load ptr, ptr %10, align 8
  %31 = getelementptr inbounds %struct._zend_resource, ptr %30, i32 0, i32 0
  %32 = getelementptr inbounds %struct._zend_refcounted_h, ptr %31, i32 0, i32 1
  store i32 25, ptr %32, align 4
  %33 = load i64, ptr %9, align 8
  %34 = load ptr, ptr %10, align 8
  %35 = getelementptr inbounds %struct._zend_resource, ptr %34, i32 0, i32 1
  store i64 %33, ptr %35, align 8
  %36 = load i32, ptr %7, align 4
  %37 = load ptr, ptr %10, align 8
  %38 = getelementptr inbounds %struct._zend_resource, ptr %37, i32 0, i32 2
  store i32 %36, ptr %38, align 8
  %39 = load ptr, ptr %6, align 8
  %40 = load ptr, ptr %10, align 8
  %41 = getelementptr inbounds %struct._zend_resource, ptr %40, i32 0, i32 3
  store ptr %39, ptr %41, align 8
  store ptr %8, ptr %11, align 8
  %42 = load ptr, ptr %10, align 8
  %43 = load ptr, ptr %11, align 8
  %44 = getelementptr inbounds %struct._zval_struct, ptr %43, i32 0, i32 0
  store ptr %42, ptr %44, align 8
  %45 = load ptr, ptr %11, align 8
  %46 = getelementptr inbounds %struct._zval_struct, ptr %45, i32 0, i32 1
  store i32 265, ptr %46, align 8
  br label %47

47:                                               ; preds = %24
  %48 = load i64, ptr %9, align 8
  %49 = call ptr @zend_hash_index_add_new(ptr noundef getelementptr inbounds (%struct._zend_executor_globals, ptr @executor_globals, i32 0, i32 33), i64 noundef %48, ptr noundef %8)
  ret ptr %49
}

; Function Attrs: nounwind uwtable
define ptr @zend_register_resource(ptr noundef %0, i32 noundef %1) #0 {
  %3 = alloca ptr, align 8
  %4 = alloca i32, align 4
  %5 = alloca ptr, align 8
  store ptr %0, ptr %3, align 8
  store i32 %1, ptr %4, align 4
  %6 = load ptr, ptr %3, align 8
  %7 = load i32, ptr %4, align 4
  %8 = call ptr @zend_list_insert(ptr noundef %6, i32 noundef %7)
  store ptr %8, ptr %5, align 8
  %9 = load ptr, ptr %5, align 8
  %10 = getelementptr inbounds %struct._zval_struct, ptr %9, i32 0, i32 0
  %11 = load ptr, ptr %10, align 8
  ret ptr %11
}