; Function Attrs: nounwind uwtable
define ptr @zend_register_resource(ptr noundef %0, i32 noundef %1) local_unnamed_addr #0 {
  %3 = alloca %struct._zval_struct, align 8
  call void @llvm.lifetime.start.p0(i64 16, ptr nonnull %3)
  %4 = load i64, ptr getelementptr inbounds (%struct._zend_executor_globals, ptr @executor_globals, i64 0, i32 33, i32 8), align 8
  switch i64 %4, label %.fold.split.i [
    i64 0, label %zend_list_insert.exit
    i64 9223372036854775807, label %5
  ]

5:                                                ; preds = %2
  tail call void (i32, ptr, ...) @zend_error_noreturn(i32 noundef 1, ptr noundef nonnull @.str) #13
  unreachable

.fold.split.i:                                    ; preds = %2
  br label %zend_list_insert.exit

zend_list_insert.exit:                            ; preds = %2, %.fold.split.i
  %.0.i = phi i64 [ 1, %2 ], [ %4, %.fold.split.i ]
  %6 = tail call noalias ptr @_emalloc_32() #14
  store i32 1, ptr %6, align 4
  %7 = getelementptr inbounds i8, ptr %6, i64 4
  store i32 25, ptr %7, align 4
  %8 = getelementptr inbounds i8, ptr %6, i64 8
  store i64 %.0.i, ptr %8, align 8
  %9 = getelementptr inbounds i8, ptr %6, i64 16
  store i32 %1, ptr %9, align 8
  %10 = getelementptr inbounds i8, ptr %6, i64 24
  store ptr %0, ptr %10, align 8
  store ptr %6, ptr %3, align 8
  %11 = getelementptr inbounds i8, ptr %3, i64 8
  store i32 265, ptr %11, align 8
  %12 = call ptr @zend_hash_index_add_new(ptr noundef nonnull getelementptr inbounds (%struct._zend_executor_globals, ptr @executor_globals, i64 0, i32 33), i64 noundef %.0.i, ptr noundef nonnull %3) #14
  call void @llvm.lifetime.end.p0(i64 16, ptr nonnull %3)
  %13 = load ptr, ptr %12, align 8
  ret ptr %13
}